target datalayout = "e-m:e-p270:32:32-p271:32:32-p272:64:64-i64:64-i128:128-f80:128-n8:16:32:64-S128"
target triple = "x86_64-pc-linux-gnu"

@.str.8 = private unnamed_addr constant [1 x i8] zeroinitializer, align 1
@.str.81 = private unnamed_addr constant [18 x i8] c"Special depth %d:\00", align 1
@.str.82 = private unnamed_addr constant [13 x i8] c"%*sdepth %d:\00", align 1
@.str.83 = private unnamed_addr constant [21 x i8] c"%*s%u %s (type #%d)\0A\00", align 1

; Function Attrs: inlinehint nounwind uwtable
define internal void @hwloc_lstopo_show_summary_depth(ptr noundef %0, i64 noundef %1, ptr noundef %2, i32 noundef %3) #6 {
  %5 = alloca ptr, align 8
  %6 = alloca i64, align 8
  %7 = alloca ptr, align 8
  %8 = alloca i32, align 4
  %9 = alloca i32, align 4
  %10 = alloca i32, align 4
  %11 = alloca i64, align 8
  %12 = alloca [64 x i8], align 16
  %13 = alloca ptr, align 8
  store ptr %0, ptr %5, align 8, !tbaa !27
  store i64 %1, ptr %6, align 8, !tbaa !99
  store ptr %2, ptr %7, align 8, !tbaa !23
  store i32 %3, ptr %8, align 4, !tbaa !25
  call void @llvm.lifetime.start.p0(i64 4, ptr %9) #12
  %14 = load ptr, ptr %7, align 8, !tbaa !23
  %15 = load i32, ptr %8, align 4, !tbaa !25
  %16 = call i32 @hwloc_get_depth_type(ptr noundef %14, i32 noundef %15) #14
  store i32 %16, ptr %9, align 4, !tbaa !25
  call void @llvm.lifetime.start.p0(i64 4, ptr %10) #12
  %17 = load ptr, ptr %7, align 8, !tbaa !23
  %18 = load i32, ptr %8, align 4, !tbaa !25
  %19 = call i32 @hwloc_get_nbobjs_by_depth(ptr noundef %17, i32 noundef %18) #14
  store i32 %19, ptr %10, align 4, !tbaa !25
  %20 = load i32, ptr %10, align 4, !tbaa !25
  %21 = icmp ne i32 %20, 0
  br i1 %21, label %22, label %59

22:                                               ; preds = %4
  call void @llvm.lifetime.start.p0(i64 8, ptr %11) #12
  call void @llvm.lifetime.start.p0(i64 64, ptr %12) #12
  call void @llvm.lifetime.start.p0(i64 8, ptr %13) #12
  %23 = load i32, ptr %8, align 4, !tbaa !25
  %24 = icmp slt i32 %23, 0
  br i1 %24, label %25, label %30

25:                                               ; preds = %22
  %26 = load ptr, ptr %5, align 8, !tbaa !27
  %27 = load i32, ptr %8, align 4, !tbaa !25
  %28 = call i32 (ptr, ptr, ...) @fprintf(ptr noundef %26, ptr noundef @.str.81, i32 noundef %27) #12
  %29 = sext i32 %28 to i64
  store i64 %29, ptr %11, align 8, !tbaa !99
  br label %36

30:                                               ; preds = %22
  %31 = load ptr, ptr %5, align 8, !tbaa !27
  %32 = load i32, ptr %8, align 4, !tbaa !25
  %33 = load i32, ptr %8, align 4, !tbaa !25
  %34 = call i32 (ptr, ptr, ...) @fprintf(ptr noundef %31, ptr noundef @.str.82, i32 noundef %32, ptr noundef @.str.8, i32 noundef %33) #12
  %35 = sext i32 %34 to i64
  store i64 %35, ptr %11, align 8, !tbaa !99
  br label %36

36:                                               ; preds = %30, %25
  %37 = load i32, ptr %8, align 4, !tbaa !25
  %38 = icmp slt i32 %37, 0
  br i1 %38, label %39, label %42

39:                                               ; preds = %36
  %40 = load i32, ptr %9, align 4, !tbaa !25
  %41 = call ptr @hwloc_obj_type_string(i32 noundef %40) #13
  store ptr %41, ptr %13, align 8, !tbaa !9
  br label %49

42:                                               ; preds = %36
  %43 = getelementptr inbounds [64 x i8], ptr %12, i64 0, i64 0
  %44 = load ptr, ptr %7, align 8, !tbaa !23
  %45 = load i32, ptr %8, align 4, !tbaa !25
  %46 = call ptr @hwloc_get_obj_by_depth(ptr noundef %44, i32 noundef %45, i32 noundef 0) #14
  %47 = call i32 @hwloc_obj_type_snprintf(ptr noundef %43, i64 noundef 64, ptr noundef %46, i64 noundef 2)
  %48 = getelementptr inbounds [64 x i8], ptr %12, i64 0, i64 0
  store ptr %48, ptr %13, align 8, !tbaa !9
  br label %49

49:                                               ; preds = %42, %39
  %50 = load ptr, ptr %5, align 8, !tbaa !27
  %51 = load i64, ptr %6, align 8, !tbaa !99
  %52 = load i64, ptr %11, align 8, !tbaa !99
  %53 = sub i64 %51, %52
  %54 = trunc i64 %53 to i32
  %55 = load i32, ptr %10, align 4, !tbaa !25
  %56 = load ptr, ptr %13, align 8, !tbaa !9
  %57 = load i32, ptr %9, align 4, !tbaa !25
  %58 = call i32 (ptr, ptr, ...) @fprintf(ptr noundef %50, ptr noundef @.str.83, i32 noundef %54, ptr noundef @.str.8, i32 noundef %55, ptr noundef %56, i32 noundef %57) #12
  call void @llvm.lifetime.end.p0(i64 8, ptr %13) #12
  call void @llvm.lifetime.end.p0(i64 64, ptr %12) #12
  call void @llvm.lifetime.end.p0(i64 8, ptr %11) #12
  br label %59

59:                                               ; preds = %49, %4
  call void @llvm.lifetime.end.p0(i64 4, ptr %10) #12
  call void @llvm.lifetime.end.p0(i64 4, ptr %9) #12
  ret void
}