; Function Attrs: inlinehint nounwind uwtable
define internal fastcc void @hwloc_lstopo_show_summary_depth(ptr noundef nonnull captures(none) %0, i64 noundef range(i64 -2147483636, 2147483659) %1, ptr noundef %2, i32 noundef %3) unnamed_addr #6 {
  %5 = alloca [64 x i8], align 16
  %6 = tail call i32 @hwloc_get_depth_type(ptr noundef %2, i32 noundef %3) #21
  %7 = tail call i32 @hwloc_get_nbobjs_by_depth(ptr noundef %2, i32 noundef %3) #21
  %.not = icmp eq i32 %7, 0
  br i1 %.not, label %21, label %8

8:                                                ; preds = %4
  call void @llvm.lifetime.start.p0(i64 64, ptr nonnull %5) #18
  %9 = icmp slt i32 %3, 0
  br i1 %9, label %10, label %13

10:                                               ; preds = %8
  %11 = tail call i32 (ptr, ptr, ...) @fprintf(ptr noundef nonnull %0, ptr noundef nonnull @.str.81, i32 noundef %3) #18
  %12 = tail call ptr @hwloc_obj_type_string(i32 noundef %6) #19
  br label %17

13:                                               ; preds = %8
  %14 = tail call i32 (ptr, ptr, ...) @fprintf(ptr noundef nonnull %0, ptr noundef nonnull @.str.82, i32 noundef %3, ptr noundef nonnull @.str.8, i32 noundef %3) #18
  %15 = tail call ptr @hwloc_get_obj_by_depth(ptr noundef %2, i32 noundef %3, i32 noundef 0) #21
  %16 = call i32 @hwloc_obj_type_snprintf(ptr noundef nonnull %5, i64 noundef 64, ptr noundef %15, i64 noundef 2) #18
  br label %17

17:                                               ; preds = %13, %10
  %.020.in24 = phi i32 [ %11, %10 ], [ %14, %13 ]
  %.0 = phi ptr [ %12, %10 ], [ %5, %13 ]
  %18 = trunc i64 %1 to i32
  %19 = sub i32 %18, %.020.in24
  %20 = call i32 (ptr, ptr, ...) @fprintf(ptr noundef nonnull %0, ptr noundef nonnull @.str.83, i32 noundef %19, ptr noundef nonnull @.str.8, i32 noundef %7, ptr noundef %.0, i32 noundef %6) #18
  call void @llvm.lifetime.end.p0(i64 64, ptr nonnull %5) #18
  br label %21

21:                                               ; preds = %17, %4
  ret void
}